target datalayout = "e-m:e-p270:32:32-p271:32:32-p272:64:64-i64:64-i128:128-f80:128-n8:16:32:64-S128"
target triple = "x86_64-pc-linux-gnu"

%"class.std::__cxx11::basic_string" = type { %"struct.std::__cxx11::basic_string<char>::_Alloc_hider", i64, %union.anon }
%"struct.std::__cxx11::basic_string<char>::_Alloc_hider" = type { ptr }
%union.anon = type { i64, [8 x i8] }
%"class.nix::Settings" = type { %"class.nix::Config", %"class.std::__cxx11::basic_string", %"class.std::__cxx11::basic_string", %"class.std::__cxx11::basic_string", %"class.std::__cxx11::basic_string", %"class.std::__cxx11::basic_string", %"class.std::__cxx11::basic_string", %"class.std::vector.52", %"class.std::__cxx11::basic_string", %"class.std::__cxx11::basic_string", %"class.std::__cxx11::basic_string", %"class.nix::Setting.57", %"class.nix::Setting.33", %"class.nix::Setting.33", %"class.nix::Setting.33", i8, [7 x i8], %"class.nix::Setting.59", %"struct.nix::MaxBuildJobsSetting", %"class.nix::Setting.65", %"class.nix::Setting.65", i8, [7 x i8], %"class.nix::Setting.57", %"class.nix::Setting.67", %"class.nix::Setting.67", %"class.nix::Setting.71", %"class.nix::Setting.57", %"class.nix::Setting.33", %"class.nix::Setting.33", %"class.nix::Setting.67", %"class.nix::Setting.33", %"class.nix::Setting.33", %"class.nix::Setting.33", %"class.nix::Setting.33", %"class.nix::Setting.57", %"class.nix::Setting.33", %"class.nix::Setting.65", %"class.nix::Setting.65", %"class.nix::Setting.33", %"class.nix::Setting.33", %"class.nix::Setting.33", %"class.nix::Setting.33", %"class.nix::Setting.59", %"class.nix::Setting.65", %"class.nix::Setting.33", %"class.nix::Setting.33", %"class.nix::Setting.33", %"class.nix::Setting.33", %"class.nix::Setting.80", %"class.nix::Setting.37", %"class.nix::Setting.33", %"class.nix::Setting.33", %"class.nix::Setting.57", %"class.nix::Setting.57", %"class.nix::Setting.37", %"class.nix::Setting.33", %"class.nix::OptionalPathSetting", %"class.nix::Setting.71", %"class.nix::Setting.71", %"class.nix::Setting.65", %"class.nix::Setting.33", %"class.nix::Setting.37", %"class.nix::Setting.37", %"class.nix::Setting.71", %"class.nix::Setting.37", %"class.nix::Setting.65", %"class.nix::Setting.65", %"class.nix::Setting.33", %"class.nix::Setting.57", %"class.nix::Setting.57", %"class.nix::Setting.65", %"class.nix::Setting.57", %"class.nix::Setting.57", %"class.nix::Setting.33", %"class.nix::Setting.33", %"class.nix::Setting.37", %"class.nix::Setting.71", %"class.nix::Setting.59", %"class.nix::Setting.59", %"class.nix::Setting.59", %"struct.nix::PluginFilesSetting", %"class.nix::Setting.59", %"class.nix::Setting.33", %"class.nix::Setting.33", %"class.nix::Setting.96", %"class.nix::Setting.57" }
%"class.nix::Config" = type { %"class.nix::AbstractConfig", %"class.std::map.21" }
%"class.nix::AbstractConfig" = type { ptr, %"class.std::map.16" }
%"class.std::map.16" = type { %"class.std::_Rb_tree.17" }
%"class.std::_Rb_tree.17" = type { %"struct.std::_Rb_tree<std::__cxx11::basic_string<char>, std::pair<const std::__cxx11::basic_string<char>, std::__cxx11::basic_string<char>>, std::_Select1st<std::pair<const std::__cxx11::basic_string<char>, std::__cxx11::basic_string<char>>>, std::less<std::__cxx11::basic_string<char>>>::_Rb_tree_impl" }
%"struct.std::_Rb_tree<std::__cxx11::basic_string<char>, std::pair<const std::__cxx11::basic_string<char>, std::__cxx11::basic_string<char>>, std::_Select1st<std::pair<const std::__cxx11::basic_string<char>, std::__cxx11::basic_string<char>>>, std::less<std::__cxx11::basic_string<char>>>::_Rb_tree_impl" = type { %"struct.std::_Rb_tree_key_compare.7", %"struct.std::_Rb_tree_header" }
%"struct.std::_Rb_tree_key_compare.7" = type { %"struct.std::less.8" }
%"struct.std::less.8" = type { i8 }
%"struct.std::_Rb_tree_header" = type { %"struct.std::_Rb_tree_node_base", i64 }
%"struct.std::_Rb_tree_node_base" = type { i32, ptr, ptr, ptr }
%"class.std::map.21" = type { %"class.std::_Rb_tree.22" }
%"class.std::_Rb_tree.22" = type { %"struct.std::_Rb_tree<std::__cxx11::basic_string<char>, std::pair<const std::__cxx11::basic_string<char>, nix::Config::SettingData>, std::_Select1st<std::pair<const std::__cxx11::basic_string<char>, nix::Config::SettingData>>, std::less<std::__cxx11::basic_string<char>>>::_Rb_tree_impl" }
%"struct.std::_Rb_tree<std::__cxx11::basic_string<char>, std::pair<const std::__cxx11::basic_string<char>, nix::Config::SettingData>, std::_Select1st<std::pair<const std::__cxx11::basic_string<char>, nix::Config::SettingData>>, std::less<std::__cxx11::basic_string<char>>>::_Rb_tree_impl" = type { %"struct.std::_Rb_tree_key_compare.7", %"struct.std::_Rb_tree_header" }
%"class.std::vector.52" = type { %"struct.std::_Vector_base.53" }
%"struct.std::_Vector_base.53" = type { %"struct.std::_Vector_base<std::__cxx11::basic_string<char>, std::allocator<std::__cxx11::basic_string<char>>>::_Vector_impl" }
%"struct.std::_Vector_base<std::__cxx11::basic_string<char>, std::allocator<std::__cxx11::basic_string<char>>>::_Vector_impl" = type { %"struct.std::_Vector_base<std::__cxx11::basic_string<char>, std::allocator<std::__cxx11::basic_string<char>>>::_Vector_impl_data" }
%"struct.std::_Vector_base<std::__cxx11::basic_string<char>, std::allocator<std::__cxx11::basic_string<char>>>::_Vector_impl_data" = type { ptr, ptr, ptr }
%"struct.nix::MaxBuildJobsSetting" = type { %"class.nix::BaseSetting.base.64", [7 x i8] }
%"class.nix::BaseSetting.base.64" = type <{ %"class.nix::AbstractSetting", i32, i32, i8 }>
%"class.nix::AbstractSetting" = type { ptr, %"class.std::__cxx11::basic_string", %"class.std::__cxx11::basic_string", %"class.std::set.26", i32, i8, [3 x i8], %"class.std::optional" }
%"class.std::set.26" = type { %"class.std::_Rb_tree.27" }
%"class.std::_Rb_tree.27" = type { %"struct.std::_Rb_tree<std::__cxx11::basic_string<char>, std::__cxx11::basic_string<char>, std::_Identity<std::__cxx11::basic_string<char>>, std::less<std::__cxx11::basic_string<char>>>::_Rb_tree_impl" }
%"struct.std::_Rb_tree<std::__cxx11::basic_string<char>, std::__cxx11::basic_string<char>, std::_Identity<std::__cxx11::basic_string<char>>, std::less<std::__cxx11::basic_string<char>>>::_Rb_tree_impl" = type { %"struct.std::_Rb_tree_key_compare.7", %"struct.std::_Rb_tree_header" }
%"class.std::optional" = type { %"struct.std::_Optional_base" }
%"struct.std::_Optional_base" = type { %"struct.std::_Optional_payload" }
%"struct.std::_Optional_payload" = type { %"struct.std::_Optional_payload_base.base", [3 x i8] }
%"struct.std::_Optional_payload_base.base" = type <{ %"union.std::_Optional_payload_base<nix::ExperimentalFeature>::_Storage", i8 }>
%"union.std::_Optional_payload_base<nix::ExperimentalFeature>::_Storage" = type { i32 }
%"class.nix::Setting.67" = type { %"class.nix::BaseSetting.base.69", [7 x i8] }
%"class.nix::BaseSetting.base.69" = type <{ %"class.nix::AbstractSetting", i64, i64, i8 }>
%"class.nix::Setting.80" = type { %"class.nix::BaseSetting.base.82", [7 x i8] }
%"class.nix::BaseSetting.base.82" = type <{ %"class.nix::AbstractSetting", i32, i32, i8 }>
%"class.nix::OptionalPathSetting" = type { %"class.nix::BaseSetting.base.95", [7 x i8] }
%"class.nix::BaseSetting.base.95" = type <{ %"class.nix::AbstractSetting", %"class.std::optional.85", %"class.std::optional.85", i8 }>
%"class.std::optional.85" = type { %"struct.std::_Optional_base.86" }
%"struct.std::_Optional_base.86" = type { %"struct.std::_Optional_payload.88" }
%"struct.std::_Optional_payload.88" = type { %"struct.std::_Optional_payload.base.92", [7 x i8] }
%"struct.std::_Optional_payload.base.92" = type { %"struct.std::_Optional_payload_base.base.91" }
%"struct.std::_Optional_payload_base.base.91" = type <{ %"union.std::_Optional_payload_base<std::__cxx11::basic_string<char>>::_Storage", i8 }>
%"union.std::_Optional_payload_base<std::__cxx11::basic_string<char>>::_Storage" = type { %"class.std::__cxx11::basic_string" }
%"class.nix::Setting.65" = type { %"class.nix::BaseSetting.base.64", [7 x i8] }
%"class.nix::Setting.37" = type { %"class.nix::BaseSetting.base.39", [7 x i8] }
%"class.nix::BaseSetting.base.39" = type <{ %"class.nix::AbstractSetting", %"class.std::set.26", %"class.std::set.26", i8 }>
%"class.nix::Setting.71" = type { %"class.nix::BaseSetting.base.78", [7 x i8] }
%"class.nix::BaseSetting.base.78" = type <{ %"class.nix::AbstractSetting", %"class.std::__cxx11::list.73", %"class.std::__cxx11::list.73", i8 }>
%"class.std::__cxx11::list.73" = type { %"class.std::__cxx11::_List_base.74" }
%"class.std::__cxx11::_List_base.74" = type { %"struct.std::__cxx11::_List_base<std::__cxx11::basic_string<char>, std::allocator<std::__cxx11::basic_string<char>>>::_List_impl" }
%"struct.std::__cxx11::_List_base<std::__cxx11::basic_string<char>, std::allocator<std::__cxx11::basic_string<char>>>::_List_impl" = type { %"struct.std::__detail::_List_node_header" }
%"struct.std::__detail::_List_node_header" = type { %"struct.std::__detail::_List_node_base", i64 }
%"struct.std::__detail::_List_node_base" = type { ptr, ptr }
%"struct.nix::PluginFilesSetting" = type { %"class.nix::BaseSetting.base.78", i8, [6 x i8] }
%"class.nix::Setting.59" = type { %"class.nix::BaseSetting.base.61", [7 x i8] }
%"class.nix::BaseSetting.base.61" = type <{ %"class.nix::AbstractSetting", i64, i64, i8 }>
%"class.nix::Setting.33" = type { %"class.nix::BaseSetting.base.35", [5 x i8] }
%"class.nix::BaseSetting.base.35" = type <{ %"class.nix::AbstractSetting", i8, i8, i8 }>
%"class.nix::Setting.96" = type { %"class.nix::BaseSetting.base.98", [7 x i8] }
%"class.nix::BaseSetting.base.98" = type <{ %"class.nix::AbstractSetting", %"class.std::map.16", %"class.std::map.16", i8 }>
%"class.nix::Setting.57" = type { %"class.nix::BaseSetting.base", [7 x i8] }
%"class.nix::BaseSetting.base" = type <{ %"class.nix::AbstractSetting", %"class.std::__cxx11::basic_string", %"class.std::__cxx11::basic_string", i8 }>

@_ZN3nix8settingsE = external global %"class.nix::Settings", align 8
@_ZTIN3nix8SysErrorE = linkonce_odr constant { ptr, ptr, ptr } { ptr getelementptr inbounds (ptr, ptr @_ZTVN10__cxxabiv120__si_class_type_infoE, i64 2), ptr @_ZTSN3nix8SysErrorE, ptr @_ZTIN3nix11SystemErrorE }, comdat, align 8
@.str.54 = private unnamed_addr constant [8 x i8] c"MANPATH\00", align 1
@.str.55 = private unnamed_addr constant [4 x i8] c"man\00", align 1
@.str.56 = private unnamed_addr constant [25 x i8] c"command 'man %1%' failed\00", align 1

; Function Attrs: mustprogress nounwind uwtable
define linkonce_odr noundef ptr @_ZNKSt7__cxx1112basic_stringIcSt11char_traitsIcESaIcEE7_M_dataEv(ptr noundef nonnull align 8 dereferenceable(32) %0) #2 comdat align 2 {
  %2 = alloca ptr, align 8
  store ptr %0, ptr %2, align 8
  %3 = load ptr, ptr %2, align 8
  %4 = getelementptr inbounds %"class.std::__cxx11::basic_string", ptr %3, i32 0, i32 0
  %5 = getelementptr inbounds %"struct.std::__cxx11::basic_string<char>::_Alloc_hider", ptr %4, i32 0, i32 0
  %6 = load ptr, ptr %5, align 8
  ret ptr %6
}

; Function Attrs: mustprogress nounwind uwtable
define linkonce_odr noundef ptr @_ZNKSt7__cxx1112basic_stringIcSt11char_traitsIcESaIcEE5c_strEv(ptr noundef nonnull align 8 dereferenceable(32) %0) #2 comdat align 2 {
  %2 = alloca ptr, align 8
  store ptr %0, ptr %2, align 8
  %3 = load ptr, ptr %2, align 8
  %4 = call noundef ptr @_ZNKSt7__cxx1112basic_stringIcSt11char_traitsIcESaIcEE7_M_dataEv(ptr noundef nonnull align 8 dereferenceable(32) %3)
  ret ptr %4
}

; Function Attrs: mustprogress uwtable
define void @_ZN3nix11showManPageERKNSt7__cxx1112basic_stringIcSt11char_traitsIcESaIcEEE(ptr noundef nonnull align 8 dereferenceable(32) %0) #5 personality ptr @__gxx_personality_v0 {
  %2 = alloca ptr, align 8
  %3 = alloca ptr, align 8
  %4 = alloca ptr, align 8
  %5 = alloca i32, align 4
  store ptr %0, ptr %2, align 8
  call void @_ZN3nix21restoreProcessContextEb(i1 noundef zeroext true)
  %6 = call noundef ptr @_ZNKSt7__cxx1112basic_stringIcSt11char_traitsIcESaIcEE5c_strEv(ptr noundef nonnull align 8 dereferenceable(32) getelementptr inbounds (%"class.nix::Settings", ptr @_ZN3nix8settingsE, i32 0, i32 9)) #1
  %7 = call i32 @setenv(ptr noundef @.str.54, ptr noundef %6, i32 noundef 1) #1
  %8 = load ptr, ptr %2, align 8
  %9 = call noundef ptr @_ZNKSt7__cxx1112basic_stringIcSt11char_traitsIcESaIcEE5c_strEv(ptr noundef nonnull align 8 dereferenceable(32) %8) #1
  %10 = call i32 (ptr, ptr, ...) @execlp(ptr noundef @.str.55, ptr noundef @.str.55, ptr noundef %9, ptr null) #1
  %11 = call ptr @__cxa_allocate_exception(i64 384) #1
  %12 = load ptr, ptr %2, align 8
  %13 = call noundef ptr @_ZNKSt7__cxx1112basic_stringIcSt11char_traitsIcESaIcEE5c_strEv(ptr noundef nonnull align 8 dereferenceable(32) %12) #1
  store ptr %13, ptr %3, align 8
  invoke void @_ZN3nix8SysErrorC2IJA25_cPKcEEEDpRKT_(ptr noundef nonnull align 8 dereferenceable(380) %11, ptr noundef nonnull align 1 dereferenceable(25) @.str.56, ptr noundef nonnull align 8 dereferenceable(8) %3)
          to label %14 unwind label %15

14:                                               ; preds = %1
  call void @__cxa_throw(ptr %11, ptr @_ZTIN3nix8SysErrorE, ptr @_ZN3nix8SysErrorD2Ev) #19
  unreachable

15:                                               ; preds = %1
  %16 = landingpad { ptr, i32 }
          cleanup
  %17 = extractvalue { ptr, i32 } %16, 0
  store ptr %17, ptr %4, align 8
  %18 = extractvalue { ptr, i32 } %16, 1
  store i32 %18, ptr %5, align 4
  call void @__cxa_free_exception(ptr %11) #1
  br label %19

19:                                               ; preds = %15
  %20 = load ptr, ptr %4, align 8
  %21 = load i32, ptr %5, align 4
  %22 = insertvalue { ptr, i32 } poison, ptr %20, 0
  %23 = insertvalue { ptr, i32 } %22, i32 %21, 1
  resume { ptr, i32 } %23
}