; Function Attrs: mustprogress noreturn uwtable
define void @_ZN3nix11showManPageERKNSt7__cxx1112basic_stringIcSt11char_traitsIcESaIcEEE(ptr nocapture noundef nonnull readonly align 8 dereferenceable(32) %0) local_unnamed_addr #11 personality ptr @__gxx_personality_v0 {
  %2 = alloca ptr, align 8
  tail call void @_ZN3nix21restoreProcessContextEb(i1 noundef zeroext true)
  %3 = load ptr, ptr getelementptr inbounds (%"class.nix::Settings", ptr @_ZN3nix8settingsE, i64 0, i32 9), align 8
  %4 = tail call i32 @setenv(ptr noundef nonnull @.str.54, ptr noundef %3, i32 noundef 1) #30
  %5 = load ptr, ptr %0, align 8
  %6 = tail call i32 (ptr, ptr, ...) @execlp(ptr noundef nonnull @.str.55, ptr noundef nonnull @.str.55, ptr noundef %5, ptr null) #30
  %7 = tail call ptr @__cxa_allocate_exception(i64 384) #30
  %8 = load ptr, ptr %0, align 8
  store ptr %8, ptr %2, align 8
  invoke void @_ZN3nix8SysErrorC2IJA25_cPKcEEEDpRKT_(ptr noundef nonnull align 8 dereferenceable(380) %7, ptr noundef nonnull align 1 dereferenceable(25) @.str.56, ptr noundef nonnull align 8 dereferenceable(8) %2)
          to label %9 unwind label %10

9:                                                ; preds = %1
  call void @__cxa_throw(ptr nonnull %7, ptr nonnull @_ZTIN3nix8SysErrorE, ptr nonnull @_ZN3nix8SysErrorD2Ev) #31
  unreachable

10:                                               ; preds = %1
  %11 = landingpad { ptr, i32 }
          cleanup
  call void @__cxa_free_exception(ptr %7) #30
  resume { ptr, i32 } %11
}